target datalayout = "e-m:e-p270:32:32-p271:32:32-p272:64:64-i64:64-i128:128-f80:128-n8:16:32:64-S128"
target triple = "x86_64-pc-linux-gnu"

@.str.25 = private unnamed_addr constant [31 x i8] c"%s is the PostgreSQL server.\0A\0A\00", align 1
@.str.26 = private unnamed_addr constant [26 x i8] c"Usage:\0A  %s [OPTION]...\0A\0A\00", align 1
@.str.27 = private unnamed_addr constant [10 x i8] c"Options:\0A\00", align 1
@.str.28 = private unnamed_addr constant [47 x i8] c"  -B NBUFFERS        number of shared buffers\0A\00", align 1
@.str.29 = private unnamed_addr constant [45 x i8] c"  -c NAME=VALUE      set run-time parameter\0A\00", align 1
@.str.30 = private unnamed_addr constant [67 x i8] c"  -C NAME            print value of run-time parameter, then exit\0A\00", align 1
@.str.31 = private unnamed_addr constant [38 x i8] c"  -d 1-5             debugging level\0A\00", align 1
@.str.32 = private unnamed_addr constant [41 x i8] c"  -D DATADIR         database directory\0A\00", align 1
@.str.33 = private unnamed_addr constant [59 x i8] c"  -e                 use European date input format (DMY)\0A\00", align 1
@.str.34 = private unnamed_addr constant [37 x i8] c"  -F                 turn fsync off\0A\00", align 1
@.str.35 = private unnamed_addr constant [59 x i8] c"  -h HOSTNAME        host name or IP address to listen on\0A\00", align 1
@.str.36 = private unnamed_addr constant [61 x i8] c"  -i                 enable TCP/IP connections (deprecated)\0A\00", align 1
@.str.37 = private unnamed_addr constant [50 x i8] c"  -k DIRECTORY       Unix-domain socket location\0A\00", align 1
@.str.38 = private unnamed_addr constant [60 x i8] c"  -N MAX-CONNECT     maximum number of allowed connections\0A\00", align 1
@.str.39 = private unnamed_addr constant [47 x i8] c"  -p PORT            port number to listen on\0A\00", align 1
@.str.40 = private unnamed_addr constant [55 x i8] c"  -s                 show statistics after each query\0A\00", align 1
@.str.41 = private unnamed_addr constant [61 x i8] c"  -S WORK-MEM        set amount of memory for sorts (in kB)\0A\00", align 1
@.str.42 = private unnamed_addr constant [60 x i8] c"  -V, --version      output version information, then exit\0A\00", align 1
@.str.43 = private unnamed_addr constant [45 x i8] c"  --NAME=VALUE       set run-time parameter\0A\00", align 1
@.str.44 = private unnamed_addr constant [67 x i8] c"  --describe-config  describe configuration parameters, then exit\0A\00", align 1
@.str.45 = private unnamed_addr constant [48 x i8] c"  -?, --help         show this help, then exit\0A\00", align 1
@.str.46 = private unnamed_addr constant [21 x i8] c"\0ADeveloper options:\0A\00", align 1
@.str.47 = private unnamed_addr constant [52 x i8] c"  -f s|i|o|b|t|n|m|h forbid use of some plan types\0A\00", align 1
@.str.48 = private unnamed_addr constant [59 x i8] c"  -O                 allow system table structure changes\0A\00", align 1
@.str.49 = private unnamed_addr constant [45 x i8] c"  -P                 disable system indexes\0A\00", align 1
@.str.50 = private unnamed_addr constant [52 x i8] c"  -t pa|pl|ex        show timings after each query\0A\00", align 1
@.str.51 = private unnamed_addr constant [72 x i8] c"  -T                 send SIGABRT to all backend processes if one dies\0A\00", align 1
@.str.52 = private unnamed_addr constant [71 x i8] c"  -W NUM             wait NUM seconds to allow attach from a debugger\0A\00", align 1
@.str.53 = private unnamed_addr constant [32 x i8] c"\0AOptions for single-user mode:\0A\00", align 1
@.str.54 = private unnamed_addr constant [72 x i8] c"  --single           selects single-user mode (must be first argument)\0A\00", align 1
@.str.55 = private unnamed_addr constant [60 x i8] c"  DBNAME             database name (defaults to user name)\0A\00", align 1
@.str.56 = private unnamed_addr constant [47 x i8] c"  -d 0-5             override debugging level\0A\00", align 1
@.str.57 = private unnamed_addr constant [54 x i8] c"  -E                 echo statement before execution\0A\00", align 1
@.str.58 = private unnamed_addr constant [72 x i8] c"  -j                 do not use newline as interactive query delimiter\0A\00", align 1
@.str.59 = private unnamed_addr constant [59 x i8] c"  -r FILENAME        send stdout and stderr to given file\0A\00", align 1
@.str.60 = private unnamed_addr constant [34 x i8] c"\0AOptions for bootstrapping mode:\0A\00", align 1
@.str.61 = private unnamed_addr constant [74 x i8] c"  --boot             selects bootstrapping mode (must be first argument)\0A\00", align 1
@.str.62 = private unnamed_addr constant [66 x i8] c"  --check            selects check mode (must be first argument)\0A\00", align 1
@.str.63 = private unnamed_addr constant [79 x i8] c"  DBNAME             database name (mandatory argument in bootstrapping mode)\0A\00", align 1
@.str.64 = private unnamed_addr constant [181 x i8] c"\0APlease read the documentation for the complete list of run-time\0Aconfiguration settings and how to set them on the command line or in\0Athe configuration file.\0A\0AReport bugs to <%s>.\0A\00", align 1
@.str.65 = private unnamed_addr constant [32 x i8] c"pgsql-bugs@lists.postgresql.org\00", align 1
@.str.66 = private unnamed_addr constant [20 x i8] c"%s home page: <%s>\0A\00", align 1
@.str.67 = private unnamed_addr constant [11 x i8] c"PostgreSQL\00", align 1
@.str.68 = private unnamed_addr constant [28 x i8] c"https://www.postgresql.org/\00", align 1

; Function Attrs: nounwind uwtable
define internal void @help(ptr noundef %0) #0 {
  %2 = alloca ptr, align 8
  store ptr %0, ptr %2, align 8
  %3 = load ptr, ptr %2, align 8
  %4 = call i32 (ptr, ...) @pg_printf(ptr noundef @.str.25, ptr noundef %3)
  %5 = load ptr, ptr %2, align 8
  %6 = call i32 (ptr, ...) @pg_printf(ptr noundef @.str.26, ptr noundef %5)
  %7 = call i32 (ptr, ...) @pg_printf(ptr noundef @.str.27)
  %8 = call i32 (ptr, ...) @pg_printf(ptr noundef @.str.28)
  %9 = call i32 (ptr, ...) @pg_printf(ptr noundef @.str.29)
  %10 = call i32 (ptr, ...) @pg_printf(ptr noundef @.str.30)
  %11 = call i32 (ptr, ...) @pg_printf(ptr noundef @.str.31)
  %12 = call i32 (ptr, ...) @pg_printf(ptr noundef @.str.32)
  %13 = call i32 (ptr, ...) @pg_printf(ptr noundef @.str.33)
  %14 = call i32 (ptr, ...) @pg_printf(ptr noundef @.str.34)
  %15 = call i32 (ptr, ...) @pg_printf(ptr noundef @.str.35)
  %16 = call i32 (ptr, ...) @pg_printf(ptr noundef @.str.36)
  %17 = call i32 (ptr, ...) @pg_printf(ptr noundef @.str.37)
  %18 = call i32 (ptr, ...) @pg_printf(ptr noundef @.str.38)
  %19 = call i32 (ptr, ...) @pg_printf(ptr noundef @.str.39)
  %20 = call i32 (ptr, ...) @pg_printf(ptr noundef @.str.40)
  %21 = call i32 (ptr, ...) @pg_printf(ptr noundef @.str.41)
  %22 = call i32 (ptr, ...) @pg_printf(ptr noundef @.str.42)
  %23 = call i32 (ptr, ...) @pg_printf(ptr noundef @.str.43)
  %24 = call i32 (ptr, ...) @pg_printf(ptr noundef @.str.44)
  %25 = call i32 (ptr, ...) @pg_printf(ptr noundef @.str.45)
  %26 = call i32 (ptr, ...) @pg_printf(ptr noundef @.str.46)
  %27 = call i32 (ptr, ...) @pg_printf(ptr noundef @.str.47)
  %28 = call i32 (ptr, ...) @pg_printf(ptr noundef @.str.48)
  %29 = call i32 (ptr, ...) @pg_printf(ptr noundef @.str.49)
  %30 = call i32 (ptr, ...) @pg_printf(ptr noundef @.str.50)
  %31 = call i32 (ptr, ...) @pg_printf(ptr noundef @.str.51)
  %32 = call i32 (ptr, ...) @pg_printf(ptr noundef @.str.52)
  %33 = call i32 (ptr, ...) @pg_printf(ptr noundef @.str.53)
  %34 = call i32 (ptr, ...) @pg_printf(ptr noundef @.str.54)
  %35 = call i32 (ptr, ...) @pg_printf(ptr noundef @.str.55)
  %36 = call i32 (ptr, ...) @pg_printf(ptr noundef @.str.56)
  %37 = call i32 (ptr, ...) @pg_printf(ptr noundef @.str.57)
  %38 = call i32 (ptr, ...) @pg_printf(ptr noundef @.str.58)
  %39 = call i32 (ptr, ...) @pg_printf(ptr noundef @.str.59)
  %40 = call i32 (ptr, ...) @pg_printf(ptr noundef @.str.60)
  %41 = call i32 (ptr, ...) @pg_printf(ptr noundef @.str.61)
  %42 = call i32 (ptr, ...) @pg_printf(ptr noundef @.str.62)
  %43 = call i32 (ptr, ...) @pg_printf(ptr noundef @.str.63)
  %44 = call i32 (ptr, ...) @pg_printf(ptr noundef @.str.59)
  %45 = call i32 (ptr, ...) @pg_printf(ptr noundef @.str.64, ptr noundef @.str.65)
  %46 = call i32 (ptr, ...) @pg_printf(ptr noundef @.str.66, ptr noundef @.str.67, ptr noundef @.str.68)
  ret void
}