; Function Attrs: nounwind uwtable
define internal fastcc void @help(ptr noundef %0) unnamed_addr #5 {
  %2 = tail call i32 (ptr, ...) @pg_printf(ptr noundef nonnull @.str.25, ptr noundef %0) #16
  %3 = tail call i32 (ptr, ...) @pg_printf(ptr noundef nonnull @.str.26, ptr noundef %0) #16
  %4 = tail call i32 (ptr, ...) @pg_printf(ptr noundef nonnull @.str.27) #16
  %5 = tail call i32 (ptr, ...) @pg_printf(ptr noundef nonnull @.str.28) #16
  %6 = tail call i32 (ptr, ...) @pg_printf(ptr noundef nonnull @.str.29) #16
  %7 = tail call i32 (ptr, ...) @pg_printf(ptr noundef nonnull @.str.30) #16
  %8 = tail call i32 (ptr, ...) @pg_printf(ptr noundef nonnull @.str.31) #16
  %9 = tail call i32 (ptr, ...) @pg_printf(ptr noundef nonnull @.str.32) #16
  %10 = tail call i32 (ptr, ...) @pg_printf(ptr noundef nonnull @.str.33) #16
  %11 = tail call i32 (ptr, ...) @pg_printf(ptr noundef nonnull @.str.34) #16
  %12 = tail call i32 (ptr, ...) @pg_printf(ptr noundef nonnull @.str.35) #16
  %13 = tail call i32 (ptr, ...) @pg_printf(ptr noundef nonnull @.str.36) #16
  %14 = tail call i32 (ptr, ...) @pg_printf(ptr noundef nonnull @.str.37) #16
  %15 = tail call i32 (ptr, ...) @pg_printf(ptr noundef nonnull @.str.38) #16
  %16 = tail call i32 (ptr, ...) @pg_printf(ptr noundef nonnull @.str.39) #16
  %17 = tail call i32 (ptr, ...) @pg_printf(ptr noundef nonnull @.str.40) #16
  %18 = tail call i32 (ptr, ...) @pg_printf(ptr noundef nonnull @.str.41) #16
  %19 = tail call i32 (ptr, ...) @pg_printf(ptr noundef nonnull @.str.42) #16
  %20 = tail call i32 (ptr, ...) @pg_printf(ptr noundef nonnull @.str.43) #16
  %21 = tail call i32 (ptr, ...) @pg_printf(ptr noundef nonnull @.str.44) #16
  %22 = tail call i32 (ptr, ...) @pg_printf(ptr noundef nonnull @.str.45) #16
  %23 = tail call i32 (ptr, ...) @pg_printf(ptr noundef nonnull @.str.46) #16
  %24 = tail call i32 (ptr, ...) @pg_printf(ptr noundef nonnull @.str.47) #16
  %25 = tail call i32 (ptr, ...) @pg_printf(ptr noundef nonnull @.str.48) #16
  %26 = tail call i32 (ptr, ...) @pg_printf(ptr noundef nonnull @.str.49) #16
  %27 = tail call i32 (ptr, ...) @pg_printf(ptr noundef nonnull @.str.50) #16
  %28 = tail call i32 (ptr, ...) @pg_printf(ptr noundef nonnull @.str.51) #16
  %29 = tail call i32 (ptr, ...) @pg_printf(ptr noundef nonnull @.str.52) #16
  %30 = tail call i32 (ptr, ...) @pg_printf(ptr noundef nonnull @.str.53) #16
  %31 = tail call i32 (ptr, ...) @pg_printf(ptr noundef nonnull @.str.54) #16
  %32 = tail call i32 (ptr, ...) @pg_printf(ptr noundef nonnull @.str.55) #16
  %33 = tail call i32 (ptr, ...) @pg_printf(ptr noundef nonnull @.str.56) #16
  %34 = tail call i32 (ptr, ...) @pg_printf(ptr noundef nonnull @.str.57) #16
  %35 = tail call i32 (ptr, ...) @pg_printf(ptr noundef nonnull @.str.58) #16
  %36 = tail call i32 (ptr, ...) @pg_printf(ptr noundef nonnull @.str.59) #16
  %37 = tail call i32 (ptr, ...) @pg_printf(ptr noundef nonnull @.str.60) #16
  %38 = tail call i32 (ptr, ...) @pg_printf(ptr noundef nonnull @.str.61) #16
  %39 = tail call i32 (ptr, ...) @pg_printf(ptr noundef nonnull @.str.62) #16
  %40 = tail call i32 (ptr, ...) @pg_printf(ptr noundef nonnull @.str.63) #16
  %41 = tail call i32 (ptr, ...) @pg_printf(ptr noundef nonnull @.str.59) #16
  %42 = tail call i32 (ptr, ...) @pg_printf(ptr noundef nonnull @.str.64, ptr noundef nonnull @.str.65) #16
  %43 = tail call i32 (ptr, ...) @pg_printf(ptr noundef nonnull @.str.66, ptr noundef nonnull @.str.67, ptr noundef nonnull @.str.68) #16
  ret void
}